target datalayout = "e-m:e-p270:32:32-p271:32:32-p272:64:64-i64:64-i128:128-f80:128-n8:16:32:64-S128"
target triple = "x86_64-pc-linux-gnu"

@hf_rf4ce_zrc20_cmd_actions_action_control = internal global i32 0, align 4
@hf_rf4ce_zrc20_cmd_actions_action_data_payload_length = internal global i32 0, align 4
@hf_rf4ce_zrc20_cmd_actions_action_data_action_bank = internal global i32 0, align 4
@hf_rf4ce_zrc20_cmd_actions_action_data_action_code = internal global i32 0, align 4
@hf_rf4ce_zrc20_cmd_actions_action_data_action_vendor = internal global i32 0, align 4
@hf_rf4ce_zrc20_cmd_actions_action_data_action_payload = internal global i32 0, align 4
@ett_rf4ce_profile_zrc20_action_control = internal global i32 0, align 4
@ett_rf4ce_profile_action_records_sub = internal global i32 0, align 4
@.str.367 = private unnamed_addr constant [11 x i8] c"Record %d:\00", align 1

; Function Attrs: null_pointer_is_valid sspstrong uwtable
define internal void @dissect_rf4ce_profile_zrc20_action_data(ptr noundef %0, ptr noundef %1, ptr noundef %2, i1 noundef zeroext %3) #0 {
  %5 = alloca ptr, align 8
  %6 = alloca ptr, align 8
  %7 = alloca ptr, align 8
  %8 = alloca i8, align 1
  %9 = alloca [10 x i8], align 1
  %10 = alloca ptr, align 8
  %11 = alloca i8, align 1
  %12 = alloca i32, align 4
  %13 = alloca i32, align 4
  store ptr %0, ptr %5, align 8
  store ptr %1, ptr %6, align 8
  store ptr %2, ptr %7, align 8
  %14 = zext i1 %3 to i8
  store i8 %14, ptr %8, align 1
  call void @llvm.lifetime.start.p0(i64 10, ptr %9) #6
  call void @llvm.lifetime.start.p0(i64 8, ptr %10) #6
  call void @llvm.lifetime.start.p0(i64 1, ptr %11) #6
  call void @llvm.lifetime.start.p0(i64 4, ptr %12) #6
  call void @llvm.lifetime.start.p0(i64 4, ptr %13) #6
  store i32 1, ptr %13, align 4
  %15 = getelementptr inbounds [10 x i8], ptr %9, i64 0, i64 0
  %16 = load i32, ptr %13, align 4
  %17 = call i32 (ptr, i64, i32, i64, ptr, ...) @__snprintf_chk(ptr noundef %15, i64 noundef 10, i32 noundef 2, i64 noundef 10, ptr noundef @.str.367, i32 noundef %16)
  %18 = load i32, ptr %13, align 4
  %19 = add i32 %18, 1
  store i32 %19, ptr %13, align 4
  %20 = load ptr, ptr %6, align 8
  %21 = load ptr, ptr %5, align 8
  %22 = load ptr, ptr %7, align 8
  %23 = load i32, ptr %22, align 4
  %24 = load ptr, ptr %5, align 8
  %25 = load ptr, ptr %7, align 8
  %26 = load i32, ptr %25, align 4
  %27 = call i32 @tvb_reported_length_remaining(ptr noundef %24, i32 noundef %26)
  %28 = load i32, ptr @ett_rf4ce_profile_action_records_sub, align 4
  %29 = getelementptr inbounds [10 x i8], ptr %9, i64 0, i64 0
  %30 = call ptr @proto_tree_add_subtree(ptr noundef %20, ptr noundef %21, i32 noundef %23, i32 noundef %27, i32 noundef %28, ptr noundef null, ptr noundef %29)
  store ptr %30, ptr %10, align 8
  %31 = load i8, ptr %8, align 1, !range !6, !noundef !7
  %32 = trunc i8 %31 to i1
  br i1 %32, label %33, label %44

33:                                               ; preds = %4
  %34 = load ptr, ptr %10, align 8
  %35 = load ptr, ptr %5, align 8
  %36 = load ptr, ptr %7, align 8
  %37 = load i32, ptr %36, align 4
  %38 = load i32, ptr @hf_rf4ce_zrc20_cmd_actions_action_control, align 4
  %39 = load i32, ptr @ett_rf4ce_profile_zrc20_action_control, align 4
  %40 = call ptr @proto_tree_add_bitmask(ptr noundef %34, ptr noundef %35, i32 noundef %37, i32 noundef %38, i32 noundef %39, ptr noundef @dissect_rf4ce_profile_zrc20_action_data.action_control_bits, i32 noundef -2147483648)
  %41 = load ptr, ptr %7, align 8
  %42 = load i32, ptr %41, align 4
  %43 = add i32 %42, 1
  store i32 %43, ptr %41, align 4
  br label %44

44:                                               ; preds = %33, %4
  %45 = load ptr, ptr %10, align 8
  %46 = load i32, ptr @hf_rf4ce_zrc20_cmd_actions_action_data_payload_length, align 4
  %47 = load ptr, ptr %5, align 8
  %48 = load ptr, ptr %7, align 8
  %49 = load i32, ptr %48, align 4
  %50 = call ptr @proto_tree_add_item(ptr noundef %45, i32 noundef %46, ptr noundef %47, i32 noundef %49, i32 noundef 1, i32 noundef -2147483648)
  %51 = load ptr, ptr %5, align 8
  %52 = load ptr, ptr %7, align 8
  %53 = load i32, ptr %52, align 4
  %54 = call zeroext i8 @tvb_get_uint8(ptr noundef %51, i32 noundef %53)
  store i8 %54, ptr %11, align 1
  %55 = load ptr, ptr %7, align 8
  %56 = load i32, ptr %55, align 4
  %57 = add i32 %56, 1
  store i32 %57, ptr %55, align 4
  %58 = load ptr, ptr %10, align 8
  %59 = load i32, ptr @hf_rf4ce_zrc20_cmd_actions_action_data_action_bank, align 4
  %60 = load ptr, ptr %5, align 8
  %61 = load ptr, ptr %7, align 8
  %62 = load i32, ptr %61, align 4
  %63 = call ptr @proto_tree_add_item(ptr noundef %58, i32 noundef %59, ptr noundef %60, i32 noundef %62, i32 noundef 1, i32 noundef -2147483648)
  %64 = load ptr, ptr %7, align 8
  %65 = load i32, ptr %64, align 4
  %66 = add i32 %65, 1
  store i32 %66, ptr %64, align 4
  %67 = load ptr, ptr %10, align 8
  %68 = load i32, ptr @hf_rf4ce_zrc20_cmd_actions_action_data_action_code, align 4
  %69 = load ptr, ptr %5, align 8
  %70 = load ptr, ptr %7, align 8
  %71 = load i32, ptr %70, align 4
  %72 = call ptr @proto_tree_add_item(ptr noundef %67, i32 noundef %68, ptr noundef %69, i32 noundef %71, i32 noundef 1, i32 noundef -2147483648)
  %73 = load ptr, ptr %7, align 8
  %74 = load i32, ptr %73, align 4
  %75 = add i32 %74, 1
  store i32 %75, ptr %73, align 4
  %76 = load ptr, ptr %5, align 8
  %77 = load ptr, ptr %7, align 8
  %78 = load i32, ptr %77, align 4
  %79 = call i32 @tvb_reported_length_remaining(ptr noundef %76, i32 noundef %78)
  store i32 %79, ptr %12, align 4
  %80 = load i8, ptr %11, align 1
  %81 = zext i8 %80 to i32
  %82 = icmp sgt i32 %81, 0
  br i1 %82, label %83, label %89

83:                                               ; preds = %44
  %84 = load i32, ptr %12, align 4
  %85 = load i8, ptr %11, align 1
  %86 = zext i8 %85 to i32
  %87 = sub i32 %84, %86
  %88 = icmp eq i32 %87, 3
  br i1 %88, label %99, label %89

89:                                               ; preds = %83, %44
  %90 = load i8, ptr %11, align 1
  %91 = zext i8 %90 to i32
  %92 = icmp eq i32 %91, 0
  br i1 %92, label %93, label %109

93:                                               ; preds = %89
  %94 = load i32, ptr %12, align 4
  %95 = load i8, ptr %11, align 1
  %96 = zext i8 %95 to i32
  %97 = sub i32 %94, %96
  %98 = icmp eq i32 %97, 2
  br i1 %98, label %99, label %109

99:                                               ; preds = %93, %83
  %100 = load ptr, ptr %10, align 8
  %101 = load i32, ptr @hf_rf4ce_zrc20_cmd_actions_action_data_action_vendor, align 4
  %102 = load ptr, ptr %5, align 8
  %103 = load ptr, ptr %7, align 8
  %104 = load i32, ptr %103, align 4
  %105 = call ptr @proto_tree_add_item(ptr noundef %100, i32 noundef %101, ptr noundef %102, i32 noundef %104, i32 noundef 2, i32 noundef -2147483648)
  %106 = load ptr, ptr %7, align 8
  %107 = load i32, ptr %106, align 4
  %108 = add i32 %107, 2
  store i32 %108, ptr %106, align 4
  br label %109

109:                                              ; preds = %99, %93, %89
  %110 = load i8, ptr %11, align 1
  %111 = zext i8 %110 to i32
  %112 = icmp sgt i32 %111, 0
  br i1 %112, label %113, label %127

113:                                              ; preds = %109
  %114 = load ptr, ptr %10, align 8
  %115 = load i32, ptr @hf_rf4ce_zrc20_cmd_actions_action_data_action_payload, align 4
  %116 = load ptr, ptr %5, align 8
  %117 = load ptr, ptr %7, align 8
  %118 = load i32, ptr %117, align 4
  %119 = load i8, ptr %11, align 1
  %120 = zext i8 %119 to i32
  %121 = call ptr @proto_tree_add_item(ptr noundef %114, i32 noundef %115, ptr noundef %116, i32 noundef %118, i32 noundef %120, i32 noundef 0)
  %122 = load i8, ptr %11, align 1
  %123 = zext i8 %122 to i32
  %124 = load ptr, ptr %7, align 8
  %125 = load i32, ptr %124, align 4
  %126 = add i32 %125, %123
  store i32 %126, ptr %124, align 4
  br label %127

127:                                              ; preds = %113, %109
  call void @llvm.lifetime.end.p0(i64 4, ptr %13) #6
  call void @llvm.lifetime.end.p0(i64 4, ptr %12) #6
  call void @llvm.lifetime.end.p0(i64 1, ptr %11) #6
  call void @llvm.lifetime.end.p0(i64 8, ptr %10) #6
  call void @llvm.lifetime.end.p0(i64 10, ptr %9) #6
  ret void
}