; Function Attrs: null_pointer_is_valid sspstrong uwtable
define internal fastcc void @dissect_rf4ce_profile_zrc20_action_data(ptr noundef %0, ptr noundef %1, ptr noundef captures(none) %2, i1 noundef zeroext %3) unnamed_addr #0 {
  %5 = alloca [10 x i8], align 1
  call void @llvm.lifetime.start.p0(i64 10, ptr nonnull %5) #7
  %6 = call i32 (ptr, i64, i32, i64, ptr, ...) @__snprintf_chk(ptr noundef nonnull %5, i64 noundef 10, i32 noundef 2, i64 noundef 10, ptr noundef nonnull @.str.367, i32 noundef 1)
  %7 = load i32, ptr %2, align 4
  %8 = call i32 @tvb_reported_length_remaining(ptr noundef %0, i32 noundef %7)
  %9 = load i32, ptr @ett_rf4ce_profile_action_records_sub, align 4
  %10 = call ptr @proto_tree_add_subtree(ptr noundef %1, ptr noundef %0, i32 noundef %7, i32 noundef %8, i32 noundef %9, ptr noundef null, ptr noundef nonnull %5)
  %.pre = load i32, ptr %2, align 4
  br i1 %3, label %11, label %17

11:                                               ; preds = %4
  %12 = load i32, ptr @hf_rf4ce_zrc20_cmd_actions_action_control, align 4
  %13 = load i32, ptr @ett_rf4ce_profile_zrc20_action_control, align 4
  %14 = call ptr @proto_tree_add_bitmask(ptr noundef %10, ptr noundef %0, i32 noundef %.pre, i32 noundef %12, i32 noundef %13, ptr noundef nonnull @dissect_rf4ce_profile_zrc20_action_data.action_control_bits, i32 noundef -2147483648)
  %15 = load i32, ptr %2, align 4
  %16 = add i32 %15, 1
  store i32 %16, ptr %2, align 4
  br label %17

17:                                               ; preds = %11, %4
  %18 = phi i32 [ %16, %11 ], [ %.pre, %4 ]
  %19 = load i32, ptr @hf_rf4ce_zrc20_cmd_actions_action_data_payload_length, align 4
  %20 = call ptr @proto_tree_add_item(ptr noundef %10, i32 noundef %19, ptr noundef %0, i32 noundef %18, i32 noundef 1, i32 noundef -2147483648)
  %21 = load i32, ptr %2, align 4
  %22 = call zeroext i8 @tvb_get_uint8(ptr noundef %0, i32 noundef %21)
  %23 = load i32, ptr %2, align 4
  %24 = add i32 %23, 1
  store i32 %24, ptr %2, align 4
  %25 = load i32, ptr @hf_rf4ce_zrc20_cmd_actions_action_data_action_bank, align 4
  %26 = call ptr @proto_tree_add_item(ptr noundef %10, i32 noundef %25, ptr noundef %0, i32 noundef %24, i32 noundef 1, i32 noundef -2147483648)
  %27 = load i32, ptr %2, align 4
  %28 = add i32 %27, 1
  store i32 %28, ptr %2, align 4
  %29 = load i32, ptr @hf_rf4ce_zrc20_cmd_actions_action_data_action_code, align 4
  %30 = call ptr @proto_tree_add_item(ptr noundef %10, i32 noundef %29, ptr noundef %0, i32 noundef %28, i32 noundef 1, i32 noundef -2147483648)
  %31 = load i32, ptr %2, align 4
  %32 = add i32 %31, 1
  store i32 %32, ptr %2, align 4
  %33 = call i32 @tvb_reported_length_remaining(ptr noundef %0, i32 noundef %32)
  %34 = zext i8 %22 to i32
  %.not = icmp eq i8 %22, 0
  %35 = sub i32 %33, %34
  %36 = icmp eq i32 %35, 3
  %37 = icmp eq i32 %33, 2
  %or.cond46 = select i1 %.not, i1 %37, i1 %36
  br i1 %or.cond46, label %38, label %44

38:                                               ; preds = %17
  %39 = load i32, ptr @hf_rf4ce_zrc20_cmd_actions_action_data_action_vendor, align 4
  %40 = load i32, ptr %2, align 4
  %41 = call ptr @proto_tree_add_item(ptr noundef %10, i32 noundef %39, ptr noundef %0, i32 noundef %40, i32 noundef 2, i32 noundef -2147483648)
  %42 = load i32, ptr %2, align 4
  %43 = add i32 %42, 2
  store i32 %43, ptr %2, align 4
  br label %44

44:                                               ; preds = %17, %38
  br i1 %.not, label %51, label %45

45:                                               ; preds = %44
  %46 = load i32, ptr @hf_rf4ce_zrc20_cmd_actions_action_data_action_payload, align 4
  %47 = load i32, ptr %2, align 4
  %48 = call ptr @proto_tree_add_item(ptr noundef %10, i32 noundef %46, ptr noundef %0, i32 noundef %47, i32 noundef %34, i32 noundef 0)
  %49 = load i32, ptr %2, align 4
  %50 = add i32 %49, %34
  store i32 %50, ptr %2, align 4
  br label %51

51:                                               ; preds = %45, %44
  call void @llvm.lifetime.end.p0(i64 10, ptr nonnull %5) #7
  ret void
}